target datalayout = "e-m:e-p270:32:32-p271:32:32-p272:64:64-i64:64-i128:128-f80:128-n8:16:32:64-S128"
target triple = "x86_64-pc-linux-gnu"

%struct.tsi_peer = type { ptr, i64 }
%"class.grpc_core::PolymorphicRefCount" = type { ptr }
%"class.grpc_core::RefCount" = type { %"struct.std::atomic" }
%"struct.std::atomic" = type { %"struct.std::__atomic_base" }
%"struct.std::__atomic_base" = type { i64 }
%struct.tsi_ssl_handshaker_factory = type { ptr, %struct.gpr_refcount }
%struct.gpr_refcount = type { i64 }
%"class.grpc_core::RefCountedPtr.2" = type { ptr }
%struct.tsi_ssl_server_handshaker_factory = type { %struct.tsi_ssl_handshaker_factory, ptr, ptr, i64, ptr, i64, %"class.grpc_core::RefCountedPtr.2" }
%"class.grpc_core::RefCounted.3" = type { %"class.grpc_core::PolymorphicRefCount", %"class.grpc_core::RefCount" }

; Function Attrs: alwaysinline mustprogress nounwind uwtable
define linkonce_odr noundef i64 @_ZNSt13__atomic_baseIlE9fetch_subElSt12memory_order(ptr noundef nonnull align 8 dereferenceable(8) %0, i64 noundef %1, i32 noundef %2) #16 comdat align 2 {
  %4 = alloca ptr, align 8
  %5 = alloca i64, align 8
  %6 = alloca i32, align 4
  %7 = alloca i64, align 8
  %8 = alloca i64, align 8
  store ptr %0, ptr %4, align 8, !tbaa !402
  store i64 %1, ptr %5, align 8, !tbaa !26
  store i32 %2, ptr %6, align 4, !tbaa !229
  %9 = load ptr, ptr %4, align 8
  %10 = getelementptr inbounds nuw %"struct.std::__atomic_base", ptr %9, i32 0, i32 0
  %11 = load i32, ptr %6, align 4, !tbaa !229
  %12 = load i64, ptr %5, align 8, !tbaa !26
  store i64 %12, ptr %7, align 8, !tbaa !26
  switch i32 %11, label %13 [
    i32 1, label %16
    i32 2, label %16
    i32 3, label %19
    i32 4, label %22
    i32 5, label %25
  ]

13:                                               ; preds = %3
  %14 = load i64, ptr %7, align 8
  %15 = atomicrmw sub ptr %10, i64 %14 monotonic, align 8
  store i64 %15, ptr %8, align 8
  br label %28

16:                                               ; preds = %3, %3
  %17 = load i64, ptr %7, align 8
  %18 = atomicrmw sub ptr %10, i64 %17 acquire, align 8
  store i64 %18, ptr %8, align 8
  br label %28

19:                                               ; preds = %3
  %20 = load i64, ptr %7, align 8
  %21 = atomicrmw sub ptr %10, i64 %20 release, align 8
  store i64 %21, ptr %8, align 8
  br label %28

22:                                               ; preds = %3
  %23 = load i64, ptr %7, align 8
  %24 = atomicrmw sub ptr %10, i64 %23 acq_rel, align 8
  store i64 %24, ptr %8, align 8
  br label %28

25:                                               ; preds = %3
  %26 = load i64, ptr %7, align 8
  %27 = atomicrmw sub ptr %10, i64 %26 seq_cst, align 8
  store i64 %27, ptr %8, align 8
  br label %28

28:                                               ; preds = %25, %22, %19, %16, %13
  %29 = load i64, ptr %8, align 8, !tbaa !26
  ret i64 %29
}

; Function Attrs: mustprogress nounwind uwtable
define linkonce_odr void @_ZNK9grpc_core11UnrefDeleteclIKN3tsi24TlsSessionKeyLoggerCache19TlsSessionKeyLoggerEEEvPT_(ptr noundef nonnull align 1 dereferenceable(1) %0, ptr noundef %1) #7 comdat align 2 {
  %3 = alloca ptr, align 8
  %4 = alloca ptr, align 8
  store ptr %0, ptr %3, align 8, !tbaa !400
  store ptr %1, ptr %4, align 8, !tbaa !393
  %5 = load ptr, ptr %4, align 8, !tbaa !393
  %6 = icmp eq ptr %5, null
  br i1 %6, label %11, label %7

7:                                                ; preds = %2
  %8 = load ptr, ptr %5, align 8, !tbaa !380
  %9 = getelementptr inbounds ptr, ptr %8, i64 1
  %10 = load ptr, ptr %9, align 8
  call void %10(ptr noundef nonnull align 8 dereferenceable(72) %5) #3
  br label %11

11:                                               ; preds = %7, %2
  ret void
}

; Function Attrs: mustprogress nounwind uwtable
define linkonce_odr noundef zeroext i1 @_ZN9grpc_core8RefCount5UnrefEv(ptr noundef nonnull align 8 dereferenceable(8) %0) #7 comdat align 2 {
  %2 = alloca ptr, align 8
  %3 = alloca i64, align 8
  store ptr %0, ptr %2, align 8, !tbaa !398
  %4 = load ptr, ptr %2, align 8
  call void @llvm.lifetime.start.p0(i64 8, ptr %3) #3
  %5 = getelementptr inbounds nuw %"class.grpc_core::RefCount", ptr %4, i32 0, i32 0
  %6 = call noundef i64 @_ZNSt13__atomic_baseIlE9fetch_subElSt12memory_order(ptr noundef nonnull align 8 dereferenceable(8) %5, i64 noundef 1, i32 noundef 4) #3
  store i64 %6, ptr %3, align 8, !tbaa !26
  %7 = load i64, ptr %3, align 8, !tbaa !26
  %8 = icmp eq i64 %7, 1
  call void @llvm.lifetime.end.p0(i64 8, ptr %3) #3
  ret i1 %8
}

; Function Attrs: noinline noreturn nounwind uwtable
define linkonce_odr hidden void @__clang_call_terminate(ptr noundef %0) #17 comdat {
  %2 = call ptr @__cxa_begin_catch(ptr %0) #3
  call void @_ZSt9terminatev() #29
  unreachable
}

; Function Attrs: inlinehint mustprogress nounwind uwtable
define linkonce_odr noundef ptr @_ZSt10__exchangeIPN3tsi24TlsSessionKeyLoggerCache19TlsSessionKeyLoggerERS3_ET_RS5_OT0_(ptr noundef nonnull align 8 dereferenceable(8) %0, ptr noundef nonnull align 8 dereferenceable(8) %1) #11 comdat {
  %3 = alloca ptr, align 8
  %4 = alloca ptr, align 8
  %5 = alloca ptr, align 8
  store ptr %0, ptr %3, align 8, !tbaa !396
  store ptr %1, ptr %4, align 8, !tbaa !396
  call void @llvm.lifetime.start.p0(i64 8, ptr %5) #3
  %6 = load ptr, ptr %3, align 8, !tbaa !396
  %7 = load ptr, ptr %6, align 8, !tbaa !393
  store ptr %7, ptr %5, align 8, !tbaa !393
  %8 = load ptr, ptr %4, align 8, !tbaa !396
  %9 = load ptr, ptr %8, align 8, !tbaa !393
  %10 = load ptr, ptr %3, align 8, !tbaa !396
  store ptr %9, ptr %10, align 8, !tbaa !393
  %11 = load ptr, ptr %5, align 8, !tbaa !393
  call void @llvm.lifetime.end.p0(i64 8, ptr %5) #3
  ret ptr %11
}

; Function Attrs: mustprogress uwtable
define linkonce_odr void @_ZNK9grpc_core10RefCountedIN3tsi24TlsSessionKeyLoggerCache19TlsSessionKeyLoggerENS_19PolymorphicRefCountENS_11UnrefDeleteEE5UnrefEv(ptr noundef nonnull align 8 dereferenceable(16) %0) #4 comdat align 2 {
  %2 = alloca ptr, align 8
  store ptr %0, ptr %2, align 8, !tbaa !148
  %3 = load ptr, ptr %2, align 8
  %4 = getelementptr inbounds nuw %"class.grpc_core::RefCounted.3", ptr %3, i32 0, i32 1
  %5 = call noundef zeroext i1 @_ZN9grpc_core8RefCount5UnrefEv(ptr noundef nonnull align 8 dereferenceable(8) %4)
  %6 = zext i1 %5 to i64
  %7 = call i64 @llvm.expect.i64(i64 %6, i64 0)
  %8 = icmp ne i64 %7, 0
  br i1 %8, label %9, label %10

9:                                                ; preds = %1
  call void @_ZNK9grpc_core11UnrefDeleteclIKN3tsi24TlsSessionKeyLoggerCache19TlsSessionKeyLoggerEEEvPT_(ptr noundef nonnull align 1 dereferenceable(1) %3, ptr noundef %3)
  br label %10

10:                                               ; preds = %9, %1
  ret void
}

; Function Attrs: inlinehint mustprogress nounwind uwtable
define linkonce_odr noundef ptr @_ZSt8exchangeIPN3tsi24TlsSessionKeyLoggerCache19TlsSessionKeyLoggerERS3_ET_RS5_OT0_(ptr noundef nonnull align 8 dereferenceable(8) %0, ptr noundef nonnull align 8 dereferenceable(8) %1) #11 comdat personality ptr @__gxx_personality_v0 {
  %3 = alloca ptr, align 8
  %4 = alloca ptr, align 8
  store ptr %0, ptr %3, align 8, !tbaa !396
  store ptr %1, ptr %4, align 8, !tbaa !396
  %5 = load ptr, ptr %3, align 8, !tbaa !396
  %6 = load ptr, ptr %4, align 8, !tbaa !396
  %7 = invoke noundef ptr @_ZSt10__exchangeIPN3tsi24TlsSessionKeyLoggerCache19TlsSessionKeyLoggerERS3_ET_RS5_OT0_(ptr noundef nonnull align 8 dereferenceable(8) %5, ptr noundef nonnull align 8 dereferenceable(8) %6)
          to label %8 unwind label %9

8:                                                ; preds = %2
  ret ptr %7

9:                                                ; preds = %2
  %10 = landingpad { ptr, i32 }
          catch ptr null
  %11 = extractvalue { ptr, i32 } %10, 0
  call void @__clang_call_terminate(ptr %11) #29
  unreachable
}

; Function Attrs: mustprogress uwtable
define linkonce_odr void @_ZN9grpc_core13RefCountedPtrIN3tsi24TlsSessionKeyLoggerCache19TlsSessionKeyLoggerEE5resetEPS3_(ptr noundef nonnull align 8 dereferenceable(8) %0, ptr noundef %1) #4 comdat align 2 {
  %3 = alloca ptr, align 8
  %4 = alloca ptr, align 8
  %5 = alloca ptr, align 8
  store ptr %0, ptr %3, align 8, !tbaa !150
  store ptr %1, ptr %4, align 8, !tbaa !393
  %6 = load ptr, ptr %3, align 8
  call void @llvm.lifetime.start.p0(i64 8, ptr %5) #3
  %7 = getelementptr inbounds nuw %"class.grpc_core::RefCountedPtr.2", ptr %6, i32 0, i32 0
  %8 = call noundef ptr @_ZSt8exchangeIPN3tsi24TlsSessionKeyLoggerCache19TlsSessionKeyLoggerERS3_ET_RS5_OT0_(ptr noundef nonnull align 8 dereferenceable(8) %7, ptr noundef nonnull align 8 dereferenceable(8) %4) #3
  store ptr %8, ptr %5, align 8, !tbaa !393
  %9 = load ptr, ptr %5, align 8, !tbaa !393
  %10 = icmp ne ptr %9, null
  br i1 %10, label %11, label %13

11:                                               ; preds = %2
  %12 = load ptr, ptr %5, align 8, !tbaa !393
  call void @_ZNK9grpc_core10RefCountedIN3tsi24TlsSessionKeyLoggerCache19TlsSessionKeyLoggerENS_19PolymorphicRefCountENS_11UnrefDeleteEE5UnrefEv(ptr noundef nonnull align 8 dereferenceable(16) %12)
  br label %13

13:                                               ; preds = %11, %2
  call void @llvm.lifetime.end.p0(i64 8, ptr %5) #3
  ret void
}

; Function Attrs: mustprogress uwtable
define internal void @_ZL41tsi_ssl_server_handshaker_factory_destroyP26tsi_ssl_handshaker_factory(ptr noundef %0) #4 {
  %2 = alloca ptr, align 8
  %3 = alloca ptr, align 8
  %4 = alloca i64, align 8
  store ptr %0, ptr %2, align 8, !tbaa !84
  %5 = load ptr, ptr %2, align 8, !tbaa !84
  %6 = icmp eq ptr %5, null
  br i1 %6, label %7, label %8

7:                                                ; preds = %1
  br label %71

8:                                                ; preds = %1
  call void @llvm.lifetime.start.p0(i64 8, ptr %3) #3
  %9 = load ptr, ptr %2, align 8, !tbaa !84
  store ptr %9, ptr %3, align 8, !tbaa !103
  call void @llvm.lifetime.start.p0(i64 8, ptr %4) #3
  store i64 0, ptr %4, align 8, !tbaa !26
  br label %10

10:                                               ; preds = %37, %8
  %11 = load i64, ptr %4, align 8, !tbaa !26
  %12 = load ptr, ptr %3, align 8, !tbaa !103
  %13 = getelementptr inbounds nuw %struct.tsi_ssl_server_handshaker_factory, ptr %12, i32 0, i32 3
  %14 = load i64, ptr %13, align 8, !tbaa !105
  %15 = icmp ult i64 %11, %14
  br i1 %15, label %16, label %40

16:                                               ; preds = %10
  %17 = load ptr, ptr %3, align 8, !tbaa !103
  %18 = getelementptr inbounds nuw %struct.tsi_ssl_server_handshaker_factory, ptr %17, i32 0, i32 1
  %19 = load ptr, ptr %18, align 8, !tbaa !108
  %20 = load i64, ptr %4, align 8, !tbaa !26
  %21 = getelementptr inbounds nuw ptr, ptr %19, i64 %20
  %22 = load ptr, ptr %21, align 8, !tbaa !83
  %23 = icmp ne ptr %22, null
  br i1 %23, label %24, label %36

24:                                               ; preds = %16
  %25 = load ptr, ptr %3, align 8, !tbaa !103
  %26 = getelementptr inbounds nuw %struct.tsi_ssl_server_handshaker_factory, ptr %25, i32 0, i32 1
  %27 = load ptr, ptr %26, align 8, !tbaa !108
  %28 = load i64, ptr %4, align 8, !tbaa !26
  %29 = getelementptr inbounds nuw ptr, ptr %27, i64 %28
  %30 = load ptr, ptr %29, align 8, !tbaa !83
  call void @SSL_CTX_free(ptr noundef %30)
  %31 = load ptr, ptr %3, align 8, !tbaa !103
  %32 = getelementptr inbounds nuw %struct.tsi_ssl_server_handshaker_factory, ptr %31, i32 0, i32 2
  %33 = load ptr, ptr %32, align 8, !tbaa !198
  %34 = load i64, ptr %4, align 8, !tbaa !26
  %35 = getelementptr inbounds nuw %struct.tsi_peer, ptr %33, i64 %34
  call void @_Z17tsi_peer_destructP8tsi_peer(ptr noundef %35)
  br label %36

36:                                               ; preds = %24, %16
  br label %37

37:                                               ; preds = %36
  %38 = load i64, ptr %4, align 8, !tbaa !26
  %39 = add i64 %38, 1
  store i64 %39, ptr %4, align 8, !tbaa !26
  br label %10, !llvm.loop !464

40:                                               ; preds = %10
  %41 = load ptr, ptr %3, align 8, !tbaa !103
  %42 = getelementptr inbounds nuw %struct.tsi_ssl_server_handshaker_factory, ptr %41, i32 0, i32 1
  %43 = load ptr, ptr %42, align 8, !tbaa !108
  %44 = icmp ne ptr %43, null
  br i1 %44, label %45, label %49

45:                                               ; preds = %40
  %46 = load ptr, ptr %3, align 8, !tbaa !103
  %47 = getelementptr inbounds nuw %struct.tsi_ssl_server_handshaker_factory, ptr %46, i32 0, i32 1
  %48 = load ptr, ptr %47, align 8, !tbaa !108
  call void @gpr_free(ptr noundef %48)
  br label %49

49:                                               ; preds = %45, %40
  %50 = load ptr, ptr %3, align 8, !tbaa !103
  %51 = getelementptr inbounds nuw %struct.tsi_ssl_server_handshaker_factory, ptr %50, i32 0, i32 2
  %52 = load ptr, ptr %51, align 8, !tbaa !198
  %53 = icmp ne ptr %52, null
  br i1 %53, label %54, label %58

54:                                               ; preds = %49
  %55 = load ptr, ptr %3, align 8, !tbaa !103
  %56 = getelementptr inbounds nuw %struct.tsi_ssl_server_handshaker_factory, ptr %55, i32 0, i32 2
  %57 = load ptr, ptr %56, align 8, !tbaa !198
  call void @gpr_free(ptr noundef %57)
  br label %58

58:                                               ; preds = %54, %49
  %59 = load ptr, ptr %3, align 8, !tbaa !103
  %60 = getelementptr inbounds nuw %struct.tsi_ssl_server_handshaker_factory, ptr %59, i32 0, i32 4
  %61 = load ptr, ptr %60, align 8, !tbaa !203
  %62 = icmp ne ptr %61, null
  br i1 %62, label %63, label %67

63:                                               ; preds = %58
  %64 = load ptr, ptr %3, align 8, !tbaa !103
  %65 = getelementptr inbounds nuw %struct.tsi_ssl_server_handshaker_factory, ptr %64, i32 0, i32 4
  %66 = load ptr, ptr %65, align 8, !tbaa !203
  call void @gpr_free(ptr noundef %66)
  br label %67

67:                                               ; preds = %63, %58
  %68 = load ptr, ptr %3, align 8, !tbaa !103
  %69 = getelementptr inbounds nuw %struct.tsi_ssl_server_handshaker_factory, ptr %68, i32 0, i32 6
  call void @_ZN9grpc_core13RefCountedPtrIN3tsi24TlsSessionKeyLoggerCache19TlsSessionKeyLoggerEE5resetEPS3_(ptr noundef nonnull align 8 dereferenceable(8) %69, ptr noundef null)
  %70 = load ptr, ptr %3, align 8, !tbaa !103
  call void @gpr_free(ptr noundef %70)
  call void @llvm.lifetime.end.p0(i64 8, ptr %4) #3
  call void @llvm.lifetime.end.p0(i64 8, ptr %3) #3
  br label %71

71:                                               ; preds = %67, %7
  ret void
}