; Function Attrs: mustprogress uwtable
define internal void @_ZL41tsi_ssl_server_handshaker_factory_destroyP26tsi_ssl_handshaker_factory(ptr noundef %0) #3 personality ptr @__gxx_personality_v0 {
  %2 = icmp eq ptr %0, null
  br i1 %2, label %41, label %.preheader

.preheader:                                       ; preds = %1
  %3 = getelementptr inbounds nuw i8, ptr %0, i64 32
  %4 = load i64, ptr %3, align 8, !tbaa !79
  %.not27 = icmp eq i64 %4, 0
  br i1 %.not27, label %._crit_edge, label %.lr.ph

.lr.ph:                                           ; preds = %.preheader
  %5 = getelementptr inbounds nuw i8, ptr %0, i64 16
  %6 = getelementptr inbounds nuw i8, ptr %0, i64 24
  br label %7

7:                                                ; preds = %.lr.ph, %15
  %8 = phi i64 [ %4, %.lr.ph ], [ %16, %15 ]
  %.026 = phi i64 [ 0, %.lr.ph ], [ %17, %15 ]
  %9 = load ptr, ptr %5, align 8, !tbaa !84
  %10 = getelementptr inbounds nuw ptr, ptr %9, i64 %.026
  %11 = load ptr, ptr %10, align 8, !tbaa !85
  %.not25 = icmp eq ptr %11, null
  br i1 %.not25, label %15, label %12

12:                                               ; preds = %7
  tail call void @SSL_CTX_free(ptr noundef nonnull %11)
  %13 = load ptr, ptr %6, align 8, !tbaa !174
  %14 = getelementptr inbounds nuw %struct.tsi_peer, ptr %13, i64 %.026
  tail call void @_Z17tsi_peer_destructP8tsi_peer(ptr noundef %14)
  %.pre = load i64, ptr %3, align 8, !tbaa !79
  br label %15

15:                                               ; preds = %7, %12
  %16 = phi i64 [ %8, %7 ], [ %.pre, %12 ]
  %17 = add nuw i64 %.026, 1
  %18 = icmp ult i64 %17, %16
  br i1 %18, label %7, label %._crit_edge, !llvm.loop !235

._crit_edge:                                      ; preds = %15, %.preheader
  %19 = getelementptr inbounds nuw i8, ptr %0, i64 16
  %20 = load ptr, ptr %19, align 8, !tbaa !84
  %.not = icmp eq ptr %20, null
  br i1 %.not, label %22, label %21

21:                                               ; preds = %._crit_edge
  tail call void @gpr_free(ptr noundef nonnull %20)
  br label %22

22:                                               ; preds = %21, %._crit_edge
  %23 = getelementptr inbounds nuw i8, ptr %0, i64 24
  %24 = load ptr, ptr %23, align 8, !tbaa !174
  %.not23 = icmp eq ptr %24, null
  br i1 %.not23, label %26, label %25

25:                                               ; preds = %22
  tail call void @gpr_free(ptr noundef nonnull %24)
  br label %26

26:                                               ; preds = %25, %22
  %27 = getelementptr inbounds nuw i8, ptr %0, i64 40
  %28 = load ptr, ptr %27, align 8, !tbaa !185
  %.not24 = icmp eq ptr %28, null
  br i1 %.not24, label %30, label %29

29:                                               ; preds = %26
  tail call void @gpr_free(ptr noundef nonnull %28)
  br label %30

30:                                               ; preds = %29, %26
  %31 = getelementptr inbounds nuw i8, ptr %0, i64 56
  %32 = load ptr, ptr %31, align 8, !tbaa !120
  store ptr null, ptr %31, align 8, !tbaa !120
  %.not.i = icmp eq ptr %32, null
  br i1 %.not.i, label %_ZN9grpc_core13RefCountedPtrIN3tsi24TlsSessionKeyLoggerCache19TlsSessionKeyLoggerEE5resetEPS3_.exit, label %33

33:                                               ; preds = %30
  %34 = getelementptr inbounds nuw i8, ptr %32, i64 8
  %35 = atomicrmw sub ptr %34, i64 1 acq_rel, align 8
  %36 = icmp eq i64 %35, 1
  br i1 %36, label %37, label %_ZN9grpc_core13RefCountedPtrIN3tsi24TlsSessionKeyLoggerCache19TlsSessionKeyLoggerEE5resetEPS3_.exit, !prof !28

37:                                               ; preds = %33
  %38 = load ptr, ptr %32, align 8, !tbaa !40
  %39 = getelementptr inbounds nuw i8, ptr %38, i64 8
  %40 = load ptr, ptr %39, align 8
  tail call void %40(ptr noundef nonnull align 8 dereferenceable(72) %32) #32
  br label %_ZN9grpc_core13RefCountedPtrIN3tsi24TlsSessionKeyLoggerCache19TlsSessionKeyLoggerEE5resetEPS3_.exit

_ZN9grpc_core13RefCountedPtrIN3tsi24TlsSessionKeyLoggerCache19TlsSessionKeyLoggerEE5resetEPS3_.exit: ; preds = %30, %33, %37
  tail call void @gpr_free(ptr noundef nonnull %0)
  br label %41

41:                                               ; preds = %1, %_ZN9grpc_core13RefCountedPtrIN3tsi24TlsSessionKeyLoggerCache19TlsSessionKeyLoggerEE5resetEPS3_.exit
  ret void
}